(dp1
S'vcodecs'
p2
(dp3
Vvc1_vdpau
p4
(dp5
S'encoding'
p6
I00
sS'decoding'
p7
I01
ssVeatqi
p8
(dp9
g6
I00
sg7
I01
ssVrv30
p10
(dp11
g6
I00
sg7
I01
ssVlibvpx
p12
(dp13
g6
I01
sg7
I01
ssVvp6
p14
(dp15
g6
I00
sg7
I01
ssVvmnc
p16
(dp17
g6
I00
sg7
I01
ssVdnxhd
p18
(dp19
g6
I01
sg7
I01
ssVpcx
p20
(dp21
g6
I01
sg7
I01
ssVr210
p22
(dp23
g6
I01
sg7
I01
ssVxl
p24
(dp25
g6
I00
sg7
I01
ssVbethsoftvid
p26
(dp27
g6
I00
sg7
I01
ssVprores_lgpl
p28
(dp29
g6
I00
sg7
I01
ssVbfi
p30
(dp31
g6
I00
sg7
I01
ssVv210
p32
(dp33
g6
I01
sg7
I01
ssVdxtory
p34
(dp35
g6
I00
sg7
I01
ssVwmv2
p36
(dp37
g6
I01
sg7
I01
ssVwmv3
p38
(dp39
g6
I00
sg7
I01
ssVwmv1
p40
(dp41
g6
I01
sg7
I01
ssVtxd
p42
(dp43
g6
I00
sg7
I01
ssVv210x
p44
(dp45
g6
I00
sg7
I01
ssVrv40
p46
(dp47
g6
I00
sg7
I01
ssVlibx264
p48
(dp49
g6
I01
sg7
I00
ssVfraps
p50
(dp51
g6
I00
sg7
I01
ssVa64multi
p52
(dp53
g6
I01
sg7
I00
ssVmpegvideo
p54
(dp55
g6
I00
sg7
I01
ssVbinkvideo
p56
(dp57
g6
I00
sg7
I01
ssVamv
p58
(dp59
g6
I01
sg7
I01
ssVr10k
p60
(dp61
g6
I01
sg7
I01
ssVdirac
p62
(dp63
g6
I00
sg7
I01
ssVvcr1
p64
(dp65
g6
I00
sg7
I01
ssVv410
p66
(dp67
g6
I01
sg7
I01
ssVdpx
p68
(dp69
g6
I01
sg7
I01
ssVpbm
p70
(dp71
g6
I01
sg7
I01
ssVsmackvid
p72
(dp73
g6
I00
sg7
I01
ssVtruemotion1
p74
(dp75
g6
I00
sg7
I01
ssVnuv
p76
(dp77
g6
I00
sg7
I01
ssVptx
p78
(dp79
g6
I00
sg7
I01
ssVeacmv
p80
(dp81
g6
I00
sg7
I01
ssVsvq3
p82
(dp83
g6
I00
sg7
I01
ssVhuffyuv
p84
(dp85
g6
I01
sg7
I01
ssVlagarith
p86
(dp87
g6
I00
sg7
I01
ssVpam
p88
(dp89
g6
I01
sg7
I01
ssVtarga
p90
(dp91
g6
I01
sg7
I01
ssVmszh
p92
(dp93
g6
I00
sg7
I01
ssVrl2
p94
(dp95
g6
I00
sg7
I01
ssVtmv
p96
(dp97
g6
I00
sg7
I01
ssVh264_vdpau
p98
(dp99
g6
I00
sg7
I01
ssVffv1
p100
(dp101
g6
I01
sg7
I01
ssVcinepak
p102
(dp103
g6
I00
sg7
I01
ssVindeo2
p104
(dp105
g6
I00
sg7
I01
ssVmpeg4_vdpau
p106
(dp107
g6
I00
sg7
I01
ssVsmc
p108
(dp109
g6
I00
sg7
I01
ssVeamad
p110
(dp111
g6
I00
sg7
I01
ssVmpeg2video
p112
(dp113
g6
I01
sg7
I01
ssVsvq1
p114
(dp115
g6
I01
sg7
I01
ssV4xm
p116
(dp117
g6
I00
sg7
I01
ssVmdec
p118
(dp119
g6
I00
sg7
I01
ssVqdraw
p120
(dp121
g6
I00
sg7
I01
ssVh264
p122
(dp123
g6
I00
sg7
I01
ssVjv
p124
(dp125
g6
I00
sg7
I01
ssVj2k
p126
(dp127
g6
I01
sg7
I01
ssVh261
p128
(dp129
g6
I01
sg7
I01
ssVidcinvideo
p130
(dp131
g6
I00
sg7
I01
ssVh263
p132
(dp133
g6
I01
sg7
I01
ssVroqvideo
p134
(dp135
g6
I01
sg7
I01
ssVmxpeg
p136
(dp137
g6
I00
sg7
I01
ssVtheora
p138
(dp139
g6
I00
sg7
I01
ssVescape124
p140
(dp141
g6
I00
sg7
I01
ssVxan_wc3
p142
(dp143
g6
I00
sg7
I01
ssVmmvideo
p144
(dp145
g6
I00
sg7
I01
ssVindeo5
p146
(dp147
g6
I00
sg7
I01
ssVindeo4
p148
(dp149
g6
I00
sg7
I01
ssVindeo3
p150
(dp151
g6
I00
sg7
I01
ssVflashsv2
p152
(dp153
g6
I01
sg7
I01
ssVprores
p154
(dp155
g6
I01
sg7
I01
ssVlibopenjpeg
p156
(dp157
g6
I01
sg7
I01
ssVkmvc
p158
(dp159
g6
I00
sg7
I01
ssVaura
p160
(dp161
g6
I00
sg7
I01
ssVrpza
p162
(dp163
g6
I00
sg7
I01
ssVidf
p164
(dp165
g6
I00
sg7
I01
ssVkgv1
p166
(dp167
g6
I00
sg7
I01
ssVmsmpeg4
p168
(dp169
g6
I01
sg7
I01
ssVvmdvideo
p170
(dp171
g6
I00
sg7
I01
ssVvp5
p172
(dp173
g6
I00
sg7
I01
ssVljpeg
p174
(dp175
g6
I01
sg7
I00
ssVvp3
p176
(dp177
g6
I00
sg7
I01
ssVsunrast
p178
(dp179
g6
I00
sg7
I01
ssVtiff
p180
(dp181
g6
I01
sg7
I01
ssVpgm
p182
(dp183
g6
I01
sg7
I01
ssVvp8
p184
(dp185
g6
I00
sg7
I01
ssVppm
p186
(dp187
g6
I01
sg7
I01
ssVsgi
p188
(dp189
g6
I01
sg7
I01
ssVlibschroedinger
p190
(dp191
g6
I01
sg7
I01
ssVfrwu
p192
(dp193
g6
I00
sg7
I01
ssVbintext
p194
(dp195
g6
I00
sg7
I01
ssVdvvideo
p196
(dp197
g6
I01
sg7
I01
ssViff_byterun1
p198
(dp199
g6
I00
sg7
I01
ssVmjpeg
p200
(dp201
g6
I01
sg7
I01
ssVjpegls
p202
(dp203
g6
I01
sg7
I01
ssVaura2
p204
(dp205
g6
I00
sg7
I01
ssVescape130
p206
(dp207
g6
I00
sg7
I01
ssVutvideo
p208
(dp209
g6
I00
sg7
I01
ssViff_ilbm
p210
(dp211
g6
I00
sg7
I01
ssVgif
p212
(dp213
g6
I01
sg7
I01
ssVzmbv
p214
(dp215
g6
I01
sg7
I01
ssVmsmpeg4v2
p216
(dp217
g6
I01
sg7
I01
ssVmsmpeg4v1
p218
(dp219
g6
I00
sg7
I01
ssVdfa
p220
(dp221
g6
I00
sg7
I01
ssVtiertexseqvideo
p222
(dp223
g6
I00
sg7
I01
ssVeatgq
p224
(dp225
g6
I00
sg7
I01
ssVeatgv
p226
(dp227
g6
I00
sg7
I01
ssVmpeg1video
p228
(dp229
g6
I01
sg7
I01
ssVa64multi5
p230
(dp231
g6
I01
sg7
I00
ssVmpegvideo_xvmc
p232
(dp233
g6
I00
sg7
I01
ssVdsicinvideo
p234
(dp235
g6
I00
sg7
I01
ssVh263i
p236
(dp237
g6
I00
sg7
I01
ssVrawvideo
p238
(dp239
g6
I01
sg7
I01
ssVmjpegb
p240
(dp241
g6
I00
sg7
I01
ssVbmp
p242
(dp243
g6
I01
sg7
I01
ssVh263p
p244
(dp245
g6
I01
sg7
I00
ssVbmv_video
p246
(dp247
g6
I00
sg7
I01
ssVpng
p248
(dp249
g6
I01
sg7
I01
ssVlibtheora
p250
(dp251
g6
I01
sg7
I00
ssVlibx264rgb
p252
(dp253
g6
I01
sg7
I00
ssVvp6f
p254
(dp255
g6
I00
sg7
I01
ssVvp6a
p256
(dp257
g6
I00
sg7
I01
ssVzlib
p258
(dp259
g6
I01
sg7
I01
ssVflv
p260
(dp261
g6
I01
sg7
I01
ssVv308
p262
(dp263
g6
I01
sg7
I01
ssVxwd
p264
(dp265
g6
I01
sg7
I01
ssVcyuv
p266
(dp267
g6
I00
sg7
I01
ssVflic
p268
(dp269
g6
I00
sg7
I01
ssVvb
p270
(dp271
g6
I00
sg7
I01
ssVmpeg4
p272
(dp273
g6
I01
sg7
I01
ssVsp5x
p274
(dp275
g6
I00
sg7
I01
ssVrv10
p276
(dp277
g6
I01
sg7
I01
ssVffvhuff
p278
(dp279
g6
I01
sg7
I01
ssVanm
p280
(dp281
g6
I00
sg7
I01
ssVqtrle
p282
(dp283
g6
I01
sg7
I01
ssVloco
p284
(dp285
g6
I00
sg7
I01
ssVmsvideo1
p286
(dp287
g6
I01
sg7
I01
ssVavs
p288
(dp289
g6
I00
sg7
I01
ssVvc1image
p290
(dp291
g6
I00
sg7
I01
ssVavrp
p292
(dp293
g6
I01
sg7
I01
ssVmpeg1video_vdpau
p294
(dp295
g6
I00
sg7
I01
ssVcamtasia
p296
(dp297
g6
I00
sg7
I01
ssVdxa
p298
(dp299
g6
I00
sg7
I01
ssVy41p
p300
(dp301
g6
I01
sg7
I01
ssVvble
p302
(dp303
g6
I00
sg7
I01
ssVvc1
p304
(dp305
g6
I00
sg7
I01
ssVmpegvideo_vdpau
p306
(dp307
g6
I00
sg7
I01
ssVsnow
p308
(dp309
g6
I01
sg7
I01
ssVpgmyuv
p310
(dp311
g6
I01
sg7
I01
ssVpictor
p312
(dp313
g6
I00
sg7
I01
ssVxan_wc4
p314
(dp315
g6
I00
sg7
I01
ssVcavs
p316
(dp317
g6
I00
sg7
I01
ssVyop
p318
(dp319
g6
I00
sg7
I01
ssVc93
p320
(dp321
g6
I00
sg7
I01
ssVrv20
p322
(dp323
g6
I01
sg7
I01
ssVtruemotion2
p324
(dp325
g6
I00
sg7
I01
ssVqpeg
p326
(dp327
g6
I00
sg7
I01
ssVcdgraphics
p328
(dp329
g6
I00
sg7
I01
ssVxbin
p330
(dp331
g6
I00
sg7
I01
ssVansi
p332
(dp333
g6
I00
sg7
I01
ssVmsrle
p334
(dp335
g6
I00
sg7
I01
ssVcljr
p336
(dp337
g6
I01
sg7
I01
ssVflashsv
p338
(dp339
g6
I01
sg7
I01
ssVinterplayvideo
p340
(dp341
g6
I00
sg7
I01
ssVasv2
p342
(dp343
g6
I01
sg7
I01
ssVasv1
p344
(dp345
g6
I01
sg7
I01
ssVultimotion
p346
(dp347
g6
I00
sg7
I01
ssVmotionpixels
p348
(dp349
g6
I00
sg7
I01
ssVwmv3_vdpau
p350
(dp351
g6
I00
sg7
I01
ssVthp
p352
(dp353
g6
I00
sg7
I01
ssVwnv1
p354
(dp355
g6
I00
sg7
I01
ssVvqavideo
p356
(dp357
g6
I00
sg7
I01
ssVmimic
p358
(dp359
g6
I00
sg7
I01
ssVyuv4
p360
(dp361
g6
I01
sg7
I01
ssVaasc
p362
(dp363
g6
I00
sg7
I01
ssVwmv3image
p364
(dp365
g6
I00
sg7
I01
ssV8bps
p366
(dp367
g6
I00
sg7
I01
ssVcamstudio
p368
(dp369
g6
I00
sg7
I01
sssS'formats'
p370
(dp371
Vtty
p372
(dp373
g7
I01
sg6
I00
ssVcdg
p374
(dp375
g7
I01
sg6
I00
ssVaiff
p376
(dp377
g7
I01
sg6
I01
ssVdv1394
p378
(dp379
g7
I01
sg6
I00
ssVlibdc1394
p380
(dp381
g7
I01
sg6
I00
ssVmxf
p382
(dp383
g7
I01
sg6
I01
ssVffm
p384
(dp385
g7
I01
sg6
I01
ssVmp2
p386
(dp387
g7
I00
sg6
I01
ssVmp3
p388
(dp389
g7
I01
sg6
I01
ssVdnxhd
p390
(dp391
g7
I01
sg6
I01
ssVtta
p392
(dp393
g7
I01
sg6
I00
ssVpsp
p394
(dp395
g7
I00
sg6
I01
ssVbethsoftvid
p396
(dp397
g7
I01
sg6
I00
ssVbfi
p398
(dp399
g7
I01
sg6
I00
ssVlavfi
p400
(dp401
g7
I01
sg6
I00
ssVeac3
p402
(dp403
g7
I01
sg6
I01
ssVadx
p404
(dp405
g7
I01
sg6
I01
ssVmpegvideo
p406
(dp407
g7
I01
sg6
I00
ssVadf
p408
(dp409
g7
I01
sg6
I00
ssVxwma
p410
(dp411
g7
I01
sg6
I00
ssVlatm
p412
(dp413
g7
I01
sg6
I01
ssVxmv
p414
(dp415
g7
I01
sg6
I00
ssVm4a
p416
(dp417
g7
I01
sg6
I00
ssVoss
p418
(dp419
g7
I01
sg6
I01
ssVf64be
p420
(dp421
g7
I01
sg6
I01
ssVbin
p422
(dp423
g7
I01
sg6
I00
ssVtxd
p424
(dp425
g7
I01
sg6
I00
ssVmpc
p426
(dp427
g7
I01
sg6
I00
ssVlmlm4
p428
(dp429
g7
I01
sg6
I00
ssVmov
p430
(dp431
g7
I01
sg6
I01
ssVw64
p432
(dp433
g7
I01
sg6
I00
ssVjack
p434
(dp435
g7
I01
sg6
I00
ssVdv
p436
(dp437
g7
I01
sg6
I01
ssVmxg
p438
(dp439
g7
I01
sg6
I00
ssVbit
p440
(dp441
g7
I01
sg6
I01
ssVamr
p442
(dp443
g7
I01
sg6
I01
ssVf32le
p444
(dp445
g7
I01
sg6
I01
ssVmulaw
p446
(dp447
g7
I01
sg6
I01
ssVu16be
p448
(dp449
g7
I01
sg6
I01
ssVdirac
p450
(dp451
g7
I01
sg6
I01
ssVpsxstr
p452
(dp453
g7
I01
sg6
I00
ssVismv
p454
(dp455
g7
I00
sg6
I01
ssVmpc8
p456
(dp457
g7
I01
sg6
I00
ssVaea
p458
(dp459
g7
I01
sg6
I00
ssVcrc
p460
(dp461
g7
I00
sg6
I01
ssVs16le
p462
(dp463
g7
I01
sg6
I01
ssVmicrodvd
p464
(dp465
g7
I01
sg6
I01
ssVspdif
p466
(dp467
g7
I01
sg6
I01
ssVshn
p468
(dp469
g7
I01
sg6
I00
ssVrtp
p470
(dp471
g7
I01
sg6
I01
ssVsiff
p472
(dp473
g7
I01
sg6
I00
ssVpmp
p474
(dp475
g7
I01
sg6
I00
ssVa64
p476
(dp477
g7
I00
sg6
I01
ssVnut
p478
(dp479
g7
I01
sg6
I01
ssVea
p480
(dp481
g7
I01
sg6
I00
ssVoma
p482
(dp483
g7
I01
sg6
I01
ssVpulse
p484
(dp485
g7
I01
sg6
I00
ssVwebm
p486
(dp487
g7
I01
sg6
I01
ssVpva
p488
(dp489
g7
I01
sg6
I00
ssVIFF
p490
(dp491
g7
I01
sg6
I00
ssVlibcdio
p492
(dp493
g7
I01
sg6
I00
ssVsox
p494
(dp495
g7
I01
sg6
I01
ssVcavsvideo
p496
(dp497
g7
I01
sg6
I01
ssVrl2
p498
(dp499
g7
I01
sg6
I00
ssVmpeg
p500
(dp501
g7
I01
sg6
I01
ssVico
p502
(dp503
g7
I01
sg6
I00
ssVtmv
p504
(dp505
g7
I01
sg6
I00
ssVmpegtsraw
p506
(dp507
g7
I01
sg6
I00
ssVf64le
p508
(dp509
g7
I01
sg6
I01
ssVs32be
p510
(dp511
g7
I01
sg6
I01
ssVac3
p512
(dp513
g7
I01
sg6
I01
ssVsmk
p514
(dp515
g7
I01
sg6
I00
ssVrm
p516
(dp517
g7
I01
sg6
I01
ssVjv
p518
(dp519
g7
I01
sg6
I00
ssVmpeg2video
p520
(dp521
g7
I00
sg6
I01
ssVass
p522
(dp523
g7
I01
sg6
I01
ssV4xm
p524
(dp525
g7
I01
sg6
I00
ssVvideo4linux2
p526
(dp527
g7
I01
sg6
I00
ssVwtv
p528
(dp529
g7
I01
sg6
I01
ssVh264
p530
(dp531
g7
I01
sg6
I01
ssVapplehttp
p532
(dp533
g7
I01
sg6
I00
ssVipod
p534
(dp535
g7
I00
sg6
I01
ssVh261
p536
(dp537
g7
I01
sg6
I01
ssVh263
p538
(dp539
g7
I01
sg6
I01
ssVu24be
p540
(dp541
g7
I01
sg6
I01
ssVvc1test
p542
(dp543
g7
I01
sg6
I00
ssVadts
p544
(dp545
g7
I00
sg6
I01
ssVasf
p546
(dp547
g7
I01
sg6
I01
ssVimage2
p548
(dp549
g7
I01
sg6
I01
ssVmmf
p550
(dp551
g7
I01
sg6
I01
ssVv4l2
p552
(dp553
g7
I01
sg6
I00
ssVmd5
p554
(dp555
g7
I00
sg6
I01
ssVframecrc
p556
(dp557
g7
I00
sg6
I01
ssVipmovie
p558
(dp559
g7
I01
sg6
I00
ssVwv
p560
(dp561
g7
I01
sg6
I00
ssVu16le
p562
(dp563
g7
I01
sg6
I01
ssVsvcd
p564
(dp565
g7
I00
sg6
I01
ssVvc1
p566
(dp567
g7
I01
sg6
I00
ssVf32be
p568
(dp569
g7
I01
sg6
I01
ssVsrt
p570
(dp571
g7
I01
sg6
I01
ssVact
p572
(dp573
g7
I01
sg6
I00
ssVs16be
p574
(dp575
g7
I01
sg6
I01
ssVmvi
p576
(dp577
g7
I01
sg6
I00
ssVgif
p578
(dp579
g7
I00
sg6
I01
ssVsbg
p580
(dp581
g7
I01
sg6
I00
ssVavm2
p582
(dp583
g7
I00
sg6
I01
ssVimage2pipe
p584
(dp585
g7
I01
sg6
I01
ssVgxf
p586
(dp587
g7
I01
sg6
I01
ssVmsnwctcp
p588
(dp589
g7
I01
sg6
I00
ssVISS
p590
(dp591
g7
I01
sg6
I00
ssVm4v
p592
(dp593
g7
I01
sg6
I01
ssVxa
p594
(dp595
g7
I01
sg6
I00
ssVsol
p596
(dp597
g7
I01
sg6
I00
ssVframemd5
p598
(dp599
g7
I00
sg6
I01
ssVdaud
p600
(dp601
g7
I01
sg6
I01
ssVloas
p602
(dp603
g7
I01
sg6
I00
ssVsmjpeg
p604
(dp605
g7
I01
sg6
I01
ssVapc
p606
(dp607
g7
I01
sg6
I00
ssVvqf
p608
(dp609
g7
I01
sg6
I00
ssVrpl
p610
(dp611
g7
I01
sg6
I00
ssVnsv
p612
(dp613
g7
I01
sg6
I00
ssVape
p614
(dp615
g7
I01
sg6
I00
ssVu32be
p616
(dp617
g7
I01
sg6
I01
ssVmjpeg
p618
(dp619
g7
I01
sg6
I01
ssVqcp
p620
(dp621
g7
I01
sg6
I00
ssVu8
p622
(dp623
g7
I01
sg6
I01
ssVasf_stream
p624
(dp625
g7
I00
sg6
I01
ssVsegment
p626
(dp627
g7
I00
sg6
I01
ssVrcv
p628
(dp629
g7
I00
sg6
I01
ssVswf
p630
(dp631
g7
I01
sg6
I01
ssVnuv
p632
(dp633
g7
I01
sg6
I00
ssVthp
p634
(dp635
g7
I01
sg6
I00
ssVfbdev
p636
(dp637
g7
I01
sg6
I00
ssVffmetadata
p638
(dp639
g7
I01
sg6
I01
ssVmatroska
p640
(dp641
g7
I01
sg6
I01
ssVdfa
p642
(dp643
g7
I01
sg6
I00
ssVu32le
p644
(dp645
g7
I01
sg6
I01
ssVyuv4mpegpipe
p646
(dp647
g7
I01
sg6
I01
ssVg723_1
p648
(dp649
g7
I01
sg6
I01
ssVtruehd
p650
(dp651
g7
I01
sg6
I01
ssVrso
p652
(dp653
g7
I01
sg6
I01
ssVsdp
p654
(dp655
g7
I01
sg6
I00
ssVmpeg1video
p656
(dp657
g7
I00
sg6
I01
ssVnc
p658
(dp659
g7
I01
sg6
I00
ssVrawvideo
p660
(dp661
g7
I01
sg6
I01
ssVmkvtimestamp_v2
p662
(dp663
g7
I00
sg6
I01
ssVbmv
p664
(dp665
g7
I01
sg6
I00
ssVflac
p666
(dp667
g7
I01
sg6
I01
ssValaw
p668
(dp669
g7
I01
sg6
I01
ssVsdl
p670
(dp671
g7
I00
sg6
I01
ssVogg
p672
(dp673
g7
I01
sg6
I01
ssVavs
p674
(dp675
g7
I01
sg6
I00
ssVwsvqa
p676
(dp677
g7
I01
sg6
I00
ssVg729
p678
(dp679
g7
I01
sg6
I00
ssVmxf_d10
p680
(dp681
g7
I00
sg6
I01
ssVaac
p682
(dp683
g7
I01
sg6
I00
ssVmm
p684
(dp685
g7
I01
sg6
I00
ssVg722
p686
(dp687
g7
I01
sg6
I01
ssVidcin
p688
(dp689
g7
I01
sg6
I00
ssVflv
p690
(dp691
g7
I01
sg6
I01
ssVRoQ
p692
(dp693
g7
I01
sg6
I01
ssVmlp
p694
(dp695
g7
I01
sg6
I01
ssVingenient
p696
(dp697
g7
I01
sg6
I00
ssVs24le
p698
(dp699
g7
I01
sg6
I01
ssVea_cdata
p700
(dp701
g7
I01
sg6
I00
ssVcaf
p702
(dp703
g7
I01
sg6
I01
ssVflic
p704
(dp705
g7
I01
sg6
I00
ssVu24le
p706
(dp707
g7
I01
sg6
I01
ssVivf
p708
(dp709
g7
I01
sg6
I01
ssVvob
p710
(dp711
g7
I00
sg6
I01
ssVvoc
p712
(dp713
g7
I01
sg6
I01
ssVr3d
p714
(dp715
g7
I01
sg6
I00
ssVanm
p716
(dp717
g7
I01
sg6
I00
ssV3g2
p718
(dp719
g7
I01
sg6
I01
ssVfilmstrip
p720
(dp721
g7
I01
sg6
I01
ssVtiertexseq
p722
(dp723
g7
I01
sg6
I00
ssVvmd
p724
(dp725
g7
I01
sg6
I00
ssVdsicin
p726
(dp727
g7
I01
sg6
I00
ssVavi
p728
(dp729
g7
I01
sg6
I01
ssVnull
p730
(dp731
g7
I00
sg6
I01
ssVdxa
p732
(dp733
g7
I01
sg6
I00
ssVsap
p734
(dp735
g7
I01
sg6
I01
ssVmp4
p736
(dp737
g7
I01
sg6
I01
ssVs8
p738
(dp739
g7
I01
sg6
I01
ssVrtsp
p740
(dp741
g7
I01
sg6
I01
ssVwc3movie
p742
(dp743
g7
I01
sg6
I00
ssVdts
p744
(dp745
g7
I01
sg6
I01
ssVwsaud
p746
(dp747
g7
I01
sg6
I00
ssVmj2
p748
(dp749
g7
I01
sg6
I00
ssValsa
p750
(dp751
g7
I01
sg6
I01
ssVc93
p752
(dp753
g7
I01
sg6
I00
ssV3gp
p754
(dp755
g7
I01
sg6
I01
ssVMTV
p756
(dp757
g7
I01
sg6
I00
ssVxbin
p758
(dp759
g7
I01
sg6
I00
ssVlxf
p760
(dp761
g7
I01
sg6
I00
ssVfilm_cpk
p762
(dp763
g7
I01
sg6
I00
ssVs24be
p764
(dp765
g7
I01
sg6
I01
ssVvcd
p766
(dp767
g7
I00
sg6
I01
ssVau
p768
(dp769
g7
I01
sg6
I01
ssViv8
p770
(dp771
g7
I01
sg6
I00
ssVyop
p772
(dp773
g7
I01
sg6
I00
ssVbink
p774
(dp775
g7
I01
sg6
I00
ssVdvd
p776
(dp777
g7
I00
sg6
I01
ssVx11grab
p778
(dp779
g7
I01
sg6
I00
ssVwav
p780
(dp781
g7
I01
sg6
I01
ssVidf
p782
(dp783
g7
I01
sg6
I00
ssVmpegts
p784
(dp785
g7
I01
sg6
I01
ssVmpjpeg
p786
(dp787
g7
I00
sg6
I01
ssVs32le
p788
(dp789
g7
I01
sg6
I01
ssVgsm
p790
(dp791
g7
I01
sg6
I00
sssS'acodecs'
p792
(dp793
Vaac_latm
p794
(dp795
g6
I00
sg7
I01
ssVwmavoice
p796
(dp797
g6
I00
sg7
I01
ssVws_snd1
p798
(dp799
g6
I00
sg7
I01
ssVroq_dpcm
p800
(dp801
g6
I01
sg7
I01
ssVadpcm_ea
p802
(dp803
g6
I00
sg7
I01
ssVmp2
p804
(dp805
g6
I01
sg7
I01
ssVadpcm_ima_qt
p806
(dp807
g6
I01
sg7
I01
ssVmp1
p808
(dp809
g6
I00
sg7
I01
ssVadpcm_ms
p810
(dp811
g6
I01
sg7
I01
ssVtta
p812
(dp813
g6
I00
sg7
I01
ssVadpcm_ima_iss
p814
(dp815
g6
I00
sg7
I01
ssVals
p816
(dp817
g6
I00
sg7
I01
ssVimc
p818
(dp819
g6
I00
sg7
I01
ssVeac3
p820
(dp821
g6
I01
sg7
I01
ssVreal_288
p822
(dp823
g6
I00
sg7
I01
ssVsipr
p824
(dp825
g6
I00
sg7
I01
ssVsonic
p826
(dp827
g6
I01
sg7
I01
ssVsol_dpcm
p828
(dp829
g6
I00
sg7
I01
ssVpcm_u8
p830
(dp831
g6
I01
sg7
I01
ssVlibopencore_amrnb
p832
(dp833
g6
I01
sg7
I01
ssVpcm_u32le
p834
(dp835
g6
I01
sg7
I01
ssVpcm_s24daud
p836
(dp837
g6
I01
sg7
I01
ssVcook
p838
(dp839
g6
I00
sg7
I01
ssVamrwb
p840
(dp841
g6
I00
sg7
I01
ssVs302m
p842
(dp843
g6
I00
sg7
I01
ssVmpc7
p844
(dp845
g6
I00
sg7
I01
ssV8svx_fib
p846
(dp847
g6
I00
sg7
I01
ssVpcm_lxf
p848
(dp849
g6
I00
sg7
I01
ssVsmackaud
p850
(dp851
g6
I00
sg7
I01
ssVadpcm_ima_apc
p852
(dp853
g6
I00
sg7
I01
ssVmpc8
p854
(dp855
g6
I00
sg7
I01
ssVadpcm_ct
p856
(dp857
g6
I00
sg7
I01
ssVsonicls
p858
(dp859
g6
I01
sg7
I00
ssVpcm_u24le
p860
(dp861
g6
I01
sg7
I01
ssVadpcm_4xm
p862
(dp863
g6
I00
sg7
I01
ssVpcm_s24be
p864
(dp865
g6
I01
sg7
I01
ssVmp3
p866
(dp867
g6
I00
sg7
I01
ssVpcm_f32be
p868
(dp869
g6
I01
sg7
I01
ssVpcm_s16be
p870
(dp871
g6
I01
sg7
I01
ssVnellymoser
p872
(dp873
g6
I01
sg7
I01
ssVmp3on4
p874
(dp875
g6
I00
sg7
I01
ssVpcm_s16le_planar
p876
(dp877
g6
I00
sg7
I01
ssVvorbis
p878
(dp879
g6
I01
sg7
I01
ssVtruespeech
p880
(dp881
g6
I00
sg7
I01
ssVadpcm_ima_dk3
p882
(dp883
g6
I00
sg7
I01
ssVadpcm_sbpro_2
p884
(dp885
g6
I00
sg7
I01
ssVadpcm_sbpro_3
p886
(dp887
g6
I00
sg7
I01
ssVadpcm_sbpro_4
p888
(dp889
g6
I00
sg7
I01
ssVadpcm_ima_dk4
p890
(dp891
g6
I00
sg7
I01
ssVadpcm_ima_ea_sead
p892
(dp893
g6
I00
sg7
I01
ssVadpcm_ima_ws
p894
(dp895
g6
I00
sg7
I01
ssVpcm_u24be
p896
(dp897
g6
I01
sg7
I01
ssVlibgsm
p898
(dp899
g6
I01
sg7
I01
ssVadpcm_ima_amv
p900
(dp901
g6
I00
sg7
I01
ssVqcelp
p902
(dp903
g6
I00
sg7
I01
ssVac3
p904
(dp905
g6
I01
sg7
I01
ssVlibvo_aacenc
p906
(dp907
g6
I01
sg7
I00
ssVinterplay_dpcm
p908
(dp909
g6
I00
sg7
I01
ssVdsicinaudio
p910
(dp911
g6
I00
sg7
I01
ssVadpcm_ea_maxis_xa
p912
(dp913
g6
I00
sg7
I01
ssVdca
p914
(dp915
g6
I01
sg7
I01
ssVmp3adu
p916
(dp917
g6
I00
sg7
I01
ssVadpcm_ima_wav
p918
(dp919
g6
I01
sg7
I01
ssVlibvorbis
p920
(dp921
g6
I01
sg7
I00
ssVpcm_f64be
p922
(dp923
g6
I01
sg7
I01
ssVreal_144
p924
(dp925
g6
I01
sg7
I01
ssVadpcm_ea_r1
p926
(dp927
g6
I00
sg7
I01
ssVadpcm_ea_r2
p928
(dp929
g6
I00
sg7
I01
ssVadpcm_ea_r3
p930
(dp931
g6
I00
sg7
I01
ssVwmapro
p932
(dp933
g6
I00
sg7
I01
ssVbmv_audio
p934
(dp935
g6
I00
sg7
I01
ssVwmalossless
p936
(dp937
g6
I00
sg7
I01
ssVpcm_mulaw
p938
(dp939
g6
I01
sg7
I01
ssVmp3adufloat
p940
(dp941
g6
I00
sg7
I01
ssVpcm_bluray
p942
(dp943
g6
I00
sg7
I01
ssVwavesynth
p944
(dp945
g6
I00
sg7
I01
ssVac3_fixed
p946
(dp947
g6
I01
sg7
I00
ssVape
p948
(dp949
g6
I00
sg7
I01
ssVwmav2
p950
(dp951
g6
I01
sg7
I01
ssVbinkaudio_dct
p952
(dp953
g6
I00
sg7
I01
ssVwmav1
p954
(dp955
g6
I01
sg7
I01
ssVpcm_s32le
p956
(dp957
g6
I01
sg7
I01
ssVadpcm_swf
p958
(dp959
g6
I01
sg7
I01
ssVpcm_u32be
p960
(dp961
g6
I01
sg7
I01
ssVpcm_f32le
p962
(dp963
g6
I01
sg7
I01
ssVmace6
p964
(dp965
g6
I00
sg7
I01
ssVmace3
p966
(dp967
g6
I00
sg7
I01
ssVadpcm_xa
p968
(dp969
g6
I00
sg7
I01
ssVpcm_u16le
p970
(dp971
g6
I01
sg7
I01
ssVadpcm_ima_ea_eacs
p972
(dp973
g6
I00
sg7
I01
ssVg723_1
p974
(dp975
g6
I01
sg7
I01
ssVtruehd
p976
(dp977
g6
I00
sg7
I01
ssValac
p978
(dp979
g6
I01
sg7
I01
ssVvmdaudio
p980
(dp981
g6
I00
sg7
I01
ssVlibgsm_ms
p982
(dp983
g6
I01
sg7
I01
ssVmp3on4float
p984
(dp985
g6
I00
sg7
I01
ssVflac
p986
(dp987
g6
I01
sg7
I01
ssVg729
p988
(dp989
g6
I00
sg7
I01
ssV8svx_exp
p990
(dp991
g6
I00
sg7
I01
ssVaac
p992
(dp993
g6
I01
sg7
I01
ssVpcm_alaw
p994
(dp995
g6
I01
sg7
I01
ssVg722
p996
(dp997
g6
I01
sg7
I01
ssVtwinvq
p998
(dp999
g6
I00
sg7
I01
ssVg726
p1000
(dp1001
g6
I01
sg7
I01
ssVpcm_dvd
p1002
(dp1003
g6
I00
sg7
I01
ssVmlp
p1004
(dp1005
g6
I00
sg7
I01
ssVatrac3
p1006
(dp1007
g6
I00
sg7
I01
ssVadpcm_ima_smjpeg
p1008
(dp1009
g6
I00
sg7
I01
ssVatrac1
p1010
(dp1011
g6
I00
sg7
I01
ssVadpcm_ea_xas
p1012
(dp1013
g6
I00
sg7
I01
ssVpcm_f64le
p1014
(dp1015
g6
I01
sg7
I01
ssVlibspeex
p1016
(dp1017
g6
I01
sg7
I01
ssVpcm_s32be
p1018
(dp1019
g6
I01
sg7
I01
ssVlibopencore_amrwb
p1020
(dp1021
g6
I00
sg7
I01
ssVmp1float
p1022
(dp1023
g6
I00
sg7
I01
ssVwavpack
p1024
(dp1025
g6
I00
sg7
I01
ssVadpcm_thp
p1026
(dp1027
g6
I00
sg7
I01
ssVshorten
p1028
(dp1029
g6
I00
sg7
I01
ssVpcm_u16be
p1030
(dp1031
g6
I01
sg7
I01
ssVmp3float
p1032
(dp1033
g6
I00
sg7
I01
ssVmp2float
p1034
(dp1035
g6
I00
sg7
I01
ssVxan_dpcm
p1036
(dp1037
g6
I00
sg7
I01
ssVadpcm_yamaha
p1038
(dp1039
g6
I01
sg7
I01
ssVpcm_s24le
p1040
(dp1041
g6
I01
sg7
I01
ssVpcm_s8_planar
p1042
(dp1043
g6
I00
sg7
I01
ssVpcm_s8
p1044
(dp1045
g6
I01
sg7
I01
ssVpcm_zork
p1046
(dp1047
g6
I00
sg7
I01
ssVgsm_ms
p1048
(dp1049
g6
I00
sg7
I01
ssVamrnb
p1050
(dp1051
g6
I00
sg7
I01
ssVlibvo_amrwbenc
p1052
(dp1053
g6
I01
sg7
I00
ssVlibmp3lame
p1054
(dp1055
g6
I01
sg7
I00
ssVpcm_s16le
p1056
(dp1057
g6
I01
sg7
I01
ssVbinkaudio_rdft
p1058
(dp1059
g6
I00
sg7
I01
ssVqdm2
p1060
(dp1061
g6
I00
sg7
I01
ssVadpcm_adx
p1062
(dp1063
g6
I01
sg7
I01
ssVgsm
p1064
(dp1065
g6
I00
sg7
I01
sss.